target datalayout = "e-m:e-p270:32:32-p271:32:32-p272:64:64-i64:64-i128:128-f80:128-n8:16:32:64-S128"
target triple = "x86_64-pc-linux-gnu"

%"class.ceres::internal::ProblemImpl" = type { %"struct.ceres::Problem::Options", i8, ptr, %"class.std::map", %"class.std::unordered_set", %"class.std::unique_ptr", %"class.std::vector", %"class.std::map.12", %"class.std::map.20" }
%"struct.ceres::Problem::Options" = type { i32, i32, i32, i8, i8, ptr, ptr }
%"class.std::map" = type { %"class.std::_Rb_tree" }
%"class.std::_Rb_tree" = type { %"struct.std::_Rb_tree<double *, std::pair<double *const, ceres::internal::ParameterBlock *>, std::_Select1st<std::pair<double *const, ceres::internal::ParameterBlock *>>, std::less<double *>>::_Rb_tree_impl" }
%"struct.std::_Rb_tree<double *, std::pair<double *const, ceres::internal::ParameterBlock *>, std::_Select1st<std::pair<double *const, ceres::internal::ParameterBlock *>>, std::less<double *>>::_Rb_tree_impl" = type { %"struct.std::_Rb_tree_key_compare", %"struct.std::_Rb_tree_header" }
%"struct.std::_Rb_tree_key_compare" = type { %"struct.std::less" }
%"struct.std::less" = type { i8 }
%"struct.std::_Rb_tree_header" = type { %"struct.std::_Rb_tree_node_base", i64 }
%"struct.std::_Rb_tree_node_base" = type { i32, ptr, ptr, ptr }
%"class.std::unordered_set" = type { %"class.std::_Hashtable" }
%"class.std::_Hashtable" = type { ptr, i64, %"struct.std::__detail::_Hash_node_base", i64, %"struct.std::__detail::_Prime_rehash_policy", ptr }
%"struct.std::__detail::_Hash_node_base" = type { ptr }
%"struct.std::__detail::_Prime_rehash_policy" = type { float, i64 }
%"class.std::unique_ptr" = type { %"struct.std::__uniq_ptr_data" }
%"struct.std::__uniq_ptr_data" = type { %"class.std::__uniq_ptr_impl" }
%"class.std::__uniq_ptr_impl" = type { %"class.std::tuple" }
%"class.std::tuple" = type { %"struct.std::_Tuple_impl" }
%"struct.std::_Tuple_impl" = type { %"struct.std::_Head_base.8" }
%"struct.std::_Head_base.8" = type { ptr }
%"class.std::vector" = type { %"struct.std::_Vector_base" }
%"struct.std::_Vector_base" = type { %"struct.std::_Vector_base<ceres::Manifold *, std::allocator<ceres::Manifold *>>::_Vector_impl" }
%"struct.std::_Vector_base<ceres::Manifold *, std::allocator<ceres::Manifold *>>::_Vector_impl" = type { %"struct.std::_Vector_base<ceres::Manifold *, std::allocator<ceres::Manifold *>>::_Vector_impl_data" }
%"struct.std::_Vector_base<ceres::Manifold *, std::allocator<ceres::Manifold *>>::_Vector_impl_data" = type { ptr, ptr, ptr }
%"class.std::map.12" = type { %"class.std::_Rb_tree.13" }
%"class.std::_Rb_tree.13" = type { %"struct.std::_Rb_tree<ceres::CostFunction *, std::pair<ceres::CostFunction *const, int>, std::_Select1st<std::pair<ceres::CostFunction *const, int>>, std::less<ceres::CostFunction *>>::_Rb_tree_impl" }
%"struct.std::_Rb_tree<ceres::CostFunction *, std::pair<ceres::CostFunction *const, int>, std::_Select1st<std::pair<ceres::CostFunction *const, int>>, std::less<ceres::CostFunction *>>::_Rb_tree_impl" = type { %"struct.std::_Rb_tree_key_compare.17", %"struct.std::_Rb_tree_header" }
%"struct.std::_Rb_tree_key_compare.17" = type { %"struct.std::less.18" }
%"struct.std::less.18" = type { i8 }
%"class.std::map.20" = type { %"class.std::_Rb_tree.21" }
%"class.std::_Rb_tree.21" = type { %"struct.std::_Rb_tree<ceres::LossFunction *, std::pair<ceres::LossFunction *const, int>, std::_Select1st<std::pair<ceres::LossFunction *const, int>>, std::less<ceres::LossFunction *>>::_Rb_tree_impl" }
%"struct.std::_Rb_tree<ceres::LossFunction *, std::pair<ceres::LossFunction *const, int>, std::_Select1st<std::pair<ceres::LossFunction *const, int>>, std::less<ceres::LossFunction *>>::_Rb_tree_impl" = type { %"struct.std::_Rb_tree_key_compare.25", %"struct.std::_Rb_tree_header" }
%"struct.std::_Rb_tree_key_compare.25" = type { %"struct.std::less.26" }
%"struct.std::less.26" = type { i8 }
%"struct.std::pair" = type { ptr, ptr }
%"struct.std::_Rb_tree_const_iterator" = type { ptr }
%"struct.std::_Rb_tree_node.172" = type { %"struct.std::_Rb_tree_node_base", %"struct.__gnu_cxx::__aligned_membuf.173" }
%"struct.__gnu_cxx::__aligned_membuf.173" = type { [16 x i8] }
%"struct.std::_Select1st" = type { i8 }

; Function Attrs: mustprogress nounwind uwtable
define linkonce_odr hidden noundef ptr @_ZNK9__gnu_cxx16__aligned_membufISt4pairIKPdPN5ceres8internal14ParameterBlockEEE7_M_addrEv(ptr noundef nonnull align 8 dereferenceable(16) %0) #1 comdat align 2 {
  %2 = alloca ptr, align 8
  store ptr %0, ptr %2, align 8
  %3 = load ptr, ptr %2, align 8
  %4 = getelementptr inbounds %"struct.__gnu_cxx::__aligned_membuf.173", ptr %3, i32 0, i32 0
  ret ptr %4
}

; Function Attrs: mustprogress nounwind uwtable
define linkonce_odr hidden noundef ptr @_ZNK9__gnu_cxx16__aligned_membufISt4pairIKPdPN5ceres8internal14ParameterBlockEEE6_M_ptrEv(ptr noundef nonnull align 8 dereferenceable(16) %0) #1 comdat align 2 {
  %2 = alloca ptr, align 8
  store ptr %0, ptr %2, align 8
  %3 = load ptr, ptr %2, align 8
  %4 = call noundef ptr @_ZNK9__gnu_cxx16__aligned_membufISt4pairIKPdPN5ceres8internal14ParameterBlockEEE7_M_addrEv(ptr noundef nonnull align 8 dereferenceable(16) %3) #18
  ret ptr %4
}

; Function Attrs: mustprogress nounwind uwtable
define linkonce_odr hidden noundef nonnull align 8 dereferenceable(8) ptr @_ZNKSt10_Select1stISt4pairIKPdPN5ceres8internal14ParameterBlockEEEclERKS7_(ptr noundef nonnull align 1 dereferenceable(1) %0, ptr noundef nonnull align 8 dereferenceable(16) %1) #1 comdat align 2 {
  %3 = alloca ptr, align 8
  %4 = alloca ptr, align 8
  store ptr %0, ptr %3, align 8
  store ptr %1, ptr %4, align 8
  %5 = load ptr, ptr %4, align 8
  %6 = getelementptr inbounds %"struct.std::pair", ptr %5, i32 0, i32 0
  ret ptr %6
}

; Function Attrs: mustprogress nounwind uwtable
define linkonce_odr hidden noundef ptr @_ZNKSt13_Rb_tree_nodeISt4pairIKPdPN5ceres8internal14ParameterBlockEEE9_M_valptrEv(ptr noundef nonnull align 8 dereferenceable(48) %0) #1 comdat align 2 {
  %2 = alloca ptr, align 8
  store ptr %0, ptr %2, align 8
  %3 = load ptr, ptr %2, align 8
  %4 = getelementptr inbounds %"struct.std::_Rb_tree_node.172", ptr %3, i32 0, i32 1
  %5 = call noundef ptr @_ZNK9__gnu_cxx16__aligned_membufISt4pairIKPdPN5ceres8internal14ParameterBlockEEE6_M_ptrEv(ptr noundef nonnull align 8 dereferenceable(16) %4) #18
  ret ptr %5
}

; Function Attrs: mustprogress nounwind uwtable
define linkonce_odr hidden noundef ptr @_ZNSt8_Rb_treeIPdSt4pairIKS0_PN5ceres8internal14ParameterBlockEESt10_Select1stIS7_ESt4lessIS0_ESaIS7_EE8_S_rightEPKSt18_Rb_tree_node_base(ptr noundef %0) #1 comdat align 2 {
  %2 = alloca ptr, align 8
  store ptr %0, ptr %2, align 8
  %3 = load ptr, ptr %2, align 8
  %4 = getelementptr inbounds %"struct.std::_Rb_tree_node_base", ptr %3, i32 0, i32 3
  %5 = load ptr, ptr %4, align 8
  ret ptr %5
}

; Function Attrs: mustprogress nounwind uwtable
define linkonce_odr hidden noundef ptr @_ZNSt8_Rb_treeIPdSt4pairIKS0_PN5ceres8internal14ParameterBlockEESt10_Select1stIS7_ESt4lessIS0_ESaIS7_EE7_S_leftEPKSt18_Rb_tree_node_base(ptr noundef %0) #1 comdat align 2 {
  %2 = alloca ptr, align 8
  store ptr %0, ptr %2, align 8
  %3 = load ptr, ptr %2, align 8
  %4 = getelementptr inbounds %"struct.std::_Rb_tree_node_base", ptr %3, i32 0, i32 2
  %5 = load ptr, ptr %4, align 8
  ret ptr %5
}

; Function Attrs: mustprogress uwtable
define linkonce_odr hidden noundef nonnull align 8 dereferenceable(8) ptr @_ZNSt8_Rb_treeIPdSt4pairIKS0_PN5ceres8internal14ParameterBlockEESt10_Select1stIS7_ESt4lessIS0_ESaIS7_EE6_S_keyEPKSt13_Rb_tree_nodeIS7_E(ptr noundef %0) #2 comdat align 2 {
  %2 = alloca ptr, align 8
  %3 = alloca %"struct.std::_Select1st", align 1
  store ptr %0, ptr %2, align 8
  %4 = load ptr, ptr %2, align 8
  %5 = call noundef ptr @_ZNKSt13_Rb_tree_nodeISt4pairIKPdPN5ceres8internal14ParameterBlockEEE9_M_valptrEv(ptr noundef nonnull align 8 dereferenceable(48) %4)
  %6 = call noundef nonnull align 8 dereferenceable(8) ptr @_ZNKSt10_Select1stISt4pairIKPdPN5ceres8internal14ParameterBlockEEEclERKS7_(ptr noundef nonnull align 1 dereferenceable(1) %3, ptr noundef nonnull align 8 dereferenceable(16) %5)
  ret ptr %6
}

; Function Attrs: mustprogress nounwind uwtable
define linkonce_odr hidden void @_ZNSt23_Rb_tree_const_iteratorISt4pairIKPdPN5ceres8internal14ParameterBlockEEEC2EPKSt18_Rb_tree_node_base(ptr noundef nonnull align 8 dereferenceable(8) %0, ptr noundef %1) unnamed_addr #1 comdat align 2 {
  %3 = alloca ptr, align 8
  %4 = alloca ptr, align 8
  store ptr %0, ptr %3, align 8
  store ptr %1, ptr %4, align 8
  %5 = load ptr, ptr %3, align 8
  %6 = getelementptr inbounds %"struct.std::_Rb_tree_const_iterator", ptr %5, i32 0, i32 0
  %7 = load ptr, ptr %4, align 8
  store ptr %7, ptr %6, align 8
  ret void
}

; Function Attrs: mustprogress nounwind uwtable
define linkonce_odr hidden noundef zeroext i1 @_ZNKSt4lessIPdEclES0_S0_(ptr noundef nonnull align 1 dereferenceable(1) %0, ptr noundef %1, ptr noundef %2) #1 comdat align 2 {
  %4 = alloca ptr, align 8
  %5 = alloca ptr, align 8
  %6 = alloca ptr, align 8
  store ptr %0, ptr %4, align 8
  store ptr %1, ptr %5, align 8
  store ptr %2, ptr %6, align 8
  %7 = load ptr, ptr %5, align 8
  %8 = ptrtoint ptr %7 to i64
  %9 = load ptr, ptr %6, align 8
  %10 = ptrtoint ptr %9 to i64
  %11 = icmp ult i64 %8, %10
  ret i1 %11
}

; Function Attrs: mustprogress uwtable
define linkonce_odr hidden noundef nonnull align 8 dereferenceable(8) ptr @_ZNSt8_Rb_treeIPdSt4pairIKS0_PN5ceres8internal14ParameterBlockEESt10_Select1stIS7_ESt4lessIS0_ESaIS7_EE6_S_keyEPKSt18_Rb_tree_node_base(ptr noundef %0) #2 comdat align 2 {
  %2 = alloca ptr, align 8
  store ptr %0, ptr %2, align 8
  %3 = load ptr, ptr %2, align 8
  %4 = call noundef nonnull align 8 dereferenceable(8) ptr @_ZNSt8_Rb_treeIPdSt4pairIKS0_PN5ceres8internal14ParameterBlockEESt10_Select1stIS7_ESt4lessIS0_ESaIS7_EE6_S_keyEPKSt13_Rb_tree_nodeIS7_E(ptr noundef %3)
  ret ptr %4
}

; Function Attrs: mustprogress nounwind uwtable
define linkonce_odr noundef zeroext i1 @_ZSteqRKSt23_Rb_tree_const_iteratorISt4pairIKPdPN5ceres8internal14ParameterBlockEEESA_(ptr noundef nonnull align 8 dereferenceable(8) %0, ptr noundef nonnull align 8 dereferenceable(8) %1) #1 comdat {
  %3 = alloca ptr, align 8
  %4 = alloca ptr, align 8
  store ptr %0, ptr %3, align 8
  store ptr %1, ptr %4, align 8
  %5 = load ptr, ptr %3, align 8
  %6 = getelementptr inbounds %"struct.std::_Rb_tree_const_iterator", ptr %5, i32 0, i32 0
  %7 = load ptr, ptr %6, align 8
  %8 = load ptr, ptr %4, align 8
  %9 = getelementptr inbounds %"struct.std::_Rb_tree_const_iterator", ptr %8, i32 0, i32 0
  %10 = load ptr, ptr %9, align 8
  %11 = icmp eq ptr %7, %10
  ret i1 %11
}

; Function Attrs: mustprogress uwtable
define linkonce_odr hidden ptr @_ZNKSt8_Rb_treeIPdSt4pairIKS0_PN5ceres8internal14ParameterBlockEESt10_Select1stIS7_ESt4lessIS0_ESaIS7_EE14_M_lower_boundEPKSt13_Rb_tree_nodeIS7_EPKSt18_Rb_tree_node_baseRS2_(ptr noundef nonnull align 8 dereferenceable(48) %0, ptr noundef %1, ptr noundef %2, ptr noundef nonnull align 8 dereferenceable(8) %3) #2 comdat align 2 {
  %5 = alloca %"struct.std::_Rb_tree_const_iterator", align 8
  %6 = alloca ptr, align 8
  %7 = alloca ptr, align 8
  %8 = alloca ptr, align 8
  %9 = alloca ptr, align 8
  store ptr %0, ptr %6, align 8
  store ptr %1, ptr %7, align 8
  store ptr %2, ptr %8, align 8
  store ptr %3, ptr %9, align 8
  %10 = load ptr, ptr %6, align 8
  br label %11

11:                                               ; preds = %30, %4
  %12 = load ptr, ptr %7, align 8
  %13 = icmp ne ptr %12, null
  br i1 %13, label %14, label %31

14:                                               ; preds = %11
  %15 = getelementptr inbounds %"class.std::_Rb_tree", ptr %10, i32 0, i32 0
  %16 = getelementptr inbounds %"struct.std::_Rb_tree_key_compare", ptr %15, i32 0, i32 0
  %17 = load ptr, ptr %7, align 8
  %18 = call noundef nonnull align 8 dereferenceable(8) ptr @_ZNSt8_Rb_treeIPdSt4pairIKS0_PN5ceres8internal14ParameterBlockEESt10_Select1stIS7_ESt4lessIS0_ESaIS7_EE6_S_keyEPKSt13_Rb_tree_nodeIS7_E(ptr noundef %17)
  %19 = load ptr, ptr %18, align 8
  %20 = load ptr, ptr %9, align 8
  %21 = load ptr, ptr %20, align 8
  %22 = call noundef zeroext i1 @_ZNKSt4lessIPdEclES0_S0_(ptr noundef nonnull align 1 dereferenceable(1) %16, ptr noundef %19, ptr noundef %21) #18
  br i1 %22, label %27, label %23

23:                                               ; preds = %14
  %24 = load ptr, ptr %7, align 8
  store ptr %24, ptr %8, align 8
  %25 = load ptr, ptr %7, align 8
  %26 = call noundef ptr @_ZNSt8_Rb_treeIPdSt4pairIKS0_PN5ceres8internal14ParameterBlockEESt10_Select1stIS7_ESt4lessIS0_ESaIS7_EE7_S_leftEPKSt18_Rb_tree_node_base(ptr noundef %25) #18
  store ptr %26, ptr %7, align 8
  br label %30

27:                                               ; preds = %14
  %28 = load ptr, ptr %7, align 8
  %29 = call noundef ptr @_ZNSt8_Rb_treeIPdSt4pairIKS0_PN5ceres8internal14ParameterBlockEESt10_Select1stIS7_ESt4lessIS0_ESaIS7_EE8_S_rightEPKSt18_Rb_tree_node_base(ptr noundef %28) #18
  store ptr %29, ptr %7, align 8
  br label %30

30:                                               ; preds = %27, %23
  br label %11, !llvm.loop !132

31:                                               ; preds = %11
  %32 = load ptr, ptr %8, align 8
  call void @_ZNSt23_Rb_tree_const_iteratorISt4pairIKPdPN5ceres8internal14ParameterBlockEEEC2EPKSt18_Rb_tree_node_base(ptr noundef nonnull align 8 dereferenceable(8) %5, ptr noundef %32) #18
  %33 = getelementptr inbounds %"struct.std::_Rb_tree_const_iterator", ptr %5, i32 0, i32 0
  %34 = load ptr, ptr %33, align 8
  ret ptr %34
}

; Function Attrs: mustprogress nounwind uwtable
define linkonce_odr hidden noundef ptr @_ZNKSt8_Rb_treeIPdSt4pairIKS0_PN5ceres8internal14ParameterBlockEESt10_Select1stIS7_ESt4lessIS0_ESaIS7_EE6_M_endEv(ptr noundef nonnull align 8 dereferenceable(48) %0) #1 comdat align 2 {
  %2 = alloca ptr, align 8
  store ptr %0, ptr %2, align 8
  %3 = load ptr, ptr %2, align 8
  %4 = getelementptr inbounds %"class.std::_Rb_tree", ptr %3, i32 0, i32 0
  %5 = getelementptr inbounds i8, ptr %4, i64 8
  %6 = getelementptr inbounds %"struct.std::_Rb_tree_header", ptr %5, i32 0, i32 0
  ret ptr %6
}

; Function Attrs: mustprogress nounwind uwtable
define linkonce_odr hidden noundef ptr @_ZNKSt8_Rb_treeIPdSt4pairIKS0_PN5ceres8internal14ParameterBlockEESt10_Select1stIS7_ESt4lessIS0_ESaIS7_EE8_M_beginEv(ptr noundef nonnull align 8 dereferenceable(48) %0) #1 comdat align 2 {
  %2 = alloca ptr, align 8
  store ptr %0, ptr %2, align 8
  %3 = load ptr, ptr %2, align 8
  %4 = getelementptr inbounds %"class.std::_Rb_tree", ptr %3, i32 0, i32 0
  %5 = getelementptr inbounds i8, ptr %4, i64 8
  %6 = getelementptr inbounds %"struct.std::_Rb_tree_header", ptr %5, i32 0, i32 0
  %7 = getelementptr inbounds %"struct.std::_Rb_tree_node_base", ptr %6, i32 0, i32 1
  %8 = load ptr, ptr %7, align 8
  ret ptr %8
}

; Function Attrs: mustprogress nounwind uwtable
define linkonce_odr hidden ptr @_ZNKSt8_Rb_treeIPdSt4pairIKS0_PN5ceres8internal14ParameterBlockEESt10_Select1stIS7_ESt4lessIS0_ESaIS7_EE3endEv(ptr noundef nonnull align 8 dereferenceable(48) %0) #1 comdat align 2 {
  %2 = alloca %"struct.std::_Rb_tree_const_iterator", align 8
  %3 = alloca ptr, align 8
  store ptr %0, ptr %3, align 8
  %4 = load ptr, ptr %3, align 8
  %5 = getelementptr inbounds %"class.std::_Rb_tree", ptr %4, i32 0, i32 0
  %6 = getelementptr inbounds i8, ptr %5, i64 8
  %7 = getelementptr inbounds %"struct.std::_Rb_tree_header", ptr %6, i32 0, i32 0
  call void @_ZNSt23_Rb_tree_const_iteratorISt4pairIKPdPN5ceres8internal14ParameterBlockEEEC2EPKSt18_Rb_tree_node_base(ptr noundef nonnull align 8 dereferenceable(8) %2, ptr noundef %7) #18
  %8 = getelementptr inbounds %"struct.std::_Rb_tree_const_iterator", ptr %2, i32 0, i32 0
  %9 = load ptr, ptr %8, align 8
  ret ptr %9
}

; Function Attrs: mustprogress uwtable
define linkonce_odr hidden ptr @_ZNKSt8_Rb_treeIPdSt4pairIKS0_PN5ceres8internal14ParameterBlockEESt10_Select1stIS7_ESt4lessIS0_ESaIS7_EE4findERS2_(ptr noundef nonnull align 8 dereferenceable(48) %0, ptr noundef nonnull align 8 dereferenceable(8) %1) #2 comdat align 2 {
  %3 = alloca %"struct.std::_Rb_tree_const_iterator", align 8
  %4 = alloca ptr, align 8
  %5 = alloca ptr, align 8
  %6 = alloca %"struct.std::_Rb_tree_const_iterator", align 8
  %7 = alloca %"struct.std::_Rb_tree_const_iterator", align 8
  store ptr %0, ptr %4, align 8
  store ptr %1, ptr %5, align 8
  %8 = load ptr, ptr %4, align 8
  %9 = call noundef ptr @_ZNKSt8_Rb_treeIPdSt4pairIKS0_PN5ceres8internal14ParameterBlockEESt10_Select1stIS7_ESt4lessIS0_ESaIS7_EE8_M_beginEv(ptr noundef nonnull align 8 dereferenceable(48) %8) #18
  %10 = call noundef ptr @_ZNKSt8_Rb_treeIPdSt4pairIKS0_PN5ceres8internal14ParameterBlockEESt10_Select1stIS7_ESt4lessIS0_ESaIS7_EE6_M_endEv(ptr noundef nonnull align 8 dereferenceable(48) %8) #18
  %11 = load ptr, ptr %5, align 8
  %12 = call ptr @_ZNKSt8_Rb_treeIPdSt4pairIKS0_PN5ceres8internal14ParameterBlockEESt10_Select1stIS7_ESt4lessIS0_ESaIS7_EE14_M_lower_boundEPKSt13_Rb_tree_nodeIS7_EPKSt18_Rb_tree_node_baseRS2_(ptr noundef nonnull align 8 dereferenceable(48) %8, ptr noundef %9, ptr noundef %10, ptr noundef nonnull align 8 dereferenceable(8) %11)
  %13 = getelementptr inbounds %"struct.std::_Rb_tree_const_iterator", ptr %6, i32 0, i32 0
  store ptr %12, ptr %13, align 8
  %14 = call ptr @_ZNKSt8_Rb_treeIPdSt4pairIKS0_PN5ceres8internal14ParameterBlockEESt10_Select1stIS7_ESt4lessIS0_ESaIS7_EE3endEv(ptr noundef nonnull align 8 dereferenceable(48) %8) #18
  %15 = getelementptr inbounds %"struct.std::_Rb_tree_const_iterator", ptr %7, i32 0, i32 0
  store ptr %14, ptr %15, align 8
  %16 = call noundef zeroext i1 @_ZSteqRKSt23_Rb_tree_const_iteratorISt4pairIKPdPN5ceres8internal14ParameterBlockEEESA_(ptr noundef nonnull align 8 dereferenceable(8) %6, ptr noundef nonnull align 8 dereferenceable(8) %7) #18
  br i1 %16, label %27, label %17

17:                                               ; preds = %2
  %18 = getelementptr inbounds %"class.std::_Rb_tree", ptr %8, i32 0, i32 0
  %19 = getelementptr inbounds %"struct.std::_Rb_tree_key_compare", ptr %18, i32 0, i32 0
  %20 = load ptr, ptr %5, align 8
  %21 = load ptr, ptr %20, align 8
  %22 = getelementptr inbounds %"struct.std::_Rb_tree_const_iterator", ptr %6, i32 0, i32 0
  %23 = load ptr, ptr %22, align 8
  %24 = call noundef nonnull align 8 dereferenceable(8) ptr @_ZNSt8_Rb_treeIPdSt4pairIKS0_PN5ceres8internal14ParameterBlockEESt10_Select1stIS7_ESt4lessIS0_ESaIS7_EE6_S_keyEPKSt18_Rb_tree_node_base(ptr noundef %23)
  %25 = load ptr, ptr %24, align 8
  %26 = call noundef zeroext i1 @_ZNKSt4lessIPdEclES0_S0_(ptr noundef nonnull align 1 dereferenceable(1) %19, ptr noundef %21, ptr noundef %25) #18
  br i1 %26, label %27, label %30

27:                                               ; preds = %17, %2
  %28 = call ptr @_ZNKSt8_Rb_treeIPdSt4pairIKS0_PN5ceres8internal14ParameterBlockEESt10_Select1stIS7_ESt4lessIS0_ESaIS7_EE3endEv(ptr noundef nonnull align 8 dereferenceable(48) %8) #18
  %29 = getelementptr inbounds %"struct.std::_Rb_tree_const_iterator", ptr %3, i32 0, i32 0
  store ptr %28, ptr %29, align 8
  br label %31

30:                                               ; preds = %17
  call void @llvm.memcpy.p0.p0.i64(ptr align 8 %3, ptr align 8 %6, i64 8, i1 false)
  br label %31

31:                                               ; preds = %30, %27
  %32 = getelementptr inbounds %"struct.std::_Rb_tree_const_iterator", ptr %3, i32 0, i32 0
  %33 = load ptr, ptr %32, align 8
  ret ptr %33
}

; Function Attrs: mustprogress nounwind uwtable
define linkonce_odr noundef zeroext i1 @_ZStneRKSt23_Rb_tree_const_iteratorISt4pairIKPdPN5ceres8internal14ParameterBlockEEESA_(ptr noundef nonnull align 8 dereferenceable(8) %0, ptr noundef nonnull align 8 dereferenceable(8) %1) #1 comdat {
  %3 = alloca ptr, align 8
  %4 = alloca ptr, align 8
  store ptr %0, ptr %3, align 8
  store ptr %1, ptr %4, align 8
  %5 = load ptr, ptr %3, align 8
  %6 = getelementptr inbounds %"struct.std::_Rb_tree_const_iterator", ptr %5, i32 0, i32 0
  %7 = load ptr, ptr %6, align 8
  %8 = load ptr, ptr %4, align 8
  %9 = getelementptr inbounds %"struct.std::_Rb_tree_const_iterator", ptr %8, i32 0, i32 0
  %10 = load ptr, ptr %9, align 8
  %11 = icmp ne ptr %7, %10
  ret i1 %11
}

; Function Attrs: mustprogress nounwind uwtable
define linkonce_odr hidden ptr @_ZNKSt3mapIPdPN5ceres8internal14ParameterBlockESt4lessIS0_ESaISt4pairIKS0_S4_EEE3endEv(ptr noundef nonnull align 8 dereferenceable(48) %0) #1 comdat align 2 {
  %2 = alloca %"struct.std::_Rb_tree_const_iterator", align 8
  %3 = alloca ptr, align 8
  store ptr %0, ptr %3, align 8
  %4 = load ptr, ptr %3, align 8
  %5 = getelementptr inbounds %"class.std::map", ptr %4, i32 0, i32 0
  %6 = call ptr @_ZNKSt8_Rb_treeIPdSt4pairIKS0_PN5ceres8internal14ParameterBlockEESt10_Select1stIS7_ESt4lessIS0_ESaIS7_EE3endEv(ptr noundef nonnull align 8 dereferenceable(48) %5) #18
  %7 = getelementptr inbounds %"struct.std::_Rb_tree_const_iterator", ptr %2, i32 0, i32 0
  store ptr %6, ptr %7, align 8
  %8 = getelementptr inbounds %"struct.std::_Rb_tree_const_iterator", ptr %2, i32 0, i32 0
  %9 = load ptr, ptr %8, align 8
  ret ptr %9
}

; Function Attrs: mustprogress uwtable
define linkonce_odr hidden ptr @_ZNKSt3mapIPdPN5ceres8internal14ParameterBlockESt4lessIS0_ESaISt4pairIKS0_S4_EEE4findERS8_(ptr noundef nonnull align 8 dereferenceable(48) %0, ptr noundef nonnull align 8 dereferenceable(8) %1) #2 comdat align 2 {
  %3 = alloca %"struct.std::_Rb_tree_const_iterator", align 8
  %4 = alloca ptr, align 8
  %5 = alloca ptr, align 8
  store ptr %0, ptr %4, align 8
  store ptr %1, ptr %5, align 8
  %6 = load ptr, ptr %4, align 8
  %7 = getelementptr inbounds %"class.std::map", ptr %6, i32 0, i32 0
  %8 = load ptr, ptr %5, align 8
  %9 = call ptr @_ZNKSt8_Rb_treeIPdSt4pairIKS0_PN5ceres8internal14ParameterBlockEESt10_Select1stIS7_ESt4lessIS0_ESaIS7_EE4findERS2_(ptr noundef nonnull align 8 dereferenceable(48) %7, ptr noundef nonnull align 8 dereferenceable(8) %8)
  %10 = getelementptr inbounds %"struct.std::_Rb_tree_const_iterator", ptr %3, i32 0, i32 0
  store ptr %9, ptr %10, align 8
  %11 = getelementptr inbounds %"struct.std::_Rb_tree_const_iterator", ptr %3, i32 0, i32 0
  %12 = load ptr, ptr %11, align 8
  ret ptr %12
}

; Function Attrs: mustprogress uwtable
define hidden noundef zeroext i1 @_ZNK5ceres8internal11ProblemImpl17HasParameterBlockEPKd(ptr noundef nonnull align 8 dereferenceable(280) %0, ptr noundef %1) #2 align 2 {
  %3 = alloca ptr, align 8
  %4 = alloca ptr, align 8
  %5 = alloca %"struct.std::_Rb_tree_const_iterator", align 8
  %6 = alloca ptr, align 8
  %7 = alloca %"struct.std::_Rb_tree_const_iterator", align 8
  store ptr %0, ptr %3, align 8
  store ptr %1, ptr %4, align 8
  %8 = load ptr, ptr %3, align 8
  %9 = getelementptr inbounds %"class.ceres::internal::ProblemImpl", ptr %8, i32 0, i32 3
  %10 = load ptr, ptr %4, align 8
  store ptr %10, ptr %6, align 8
  %11 = call ptr @_ZNKSt3mapIPdPN5ceres8internal14ParameterBlockESt4lessIS0_ESaISt4pairIKS0_S4_EEE4findERS8_(ptr noundef nonnull align 8 dereferenceable(48) %9, ptr noundef nonnull align 8 dereferenceable(8) %6)
  %12 = getelementptr inbounds %"struct.std::_Rb_tree_const_iterator", ptr %5, i32 0, i32 0
  store ptr %11, ptr %12, align 8
  %13 = getelementptr inbounds %"class.ceres::internal::ProblemImpl", ptr %8, i32 0, i32 3
  %14 = call ptr @_ZNKSt3mapIPdPN5ceres8internal14ParameterBlockESt4lessIS0_ESaISt4pairIKS0_S4_EEE3endEv(ptr noundef nonnull align 8 dereferenceable(48) %13) #18
  %15 = getelementptr inbounds %"struct.std::_Rb_tree_const_iterator", ptr %7, i32 0, i32 0
  store ptr %14, ptr %15, align 8
  %16 = call noundef zeroext i1 @_ZStneRKSt23_Rb_tree_const_iteratorISt4pairIKPdPN5ceres8internal14ParameterBlockEEESA_(ptr noundef nonnull align 8 dereferenceable(8) %5, ptr noundef nonnull align 8 dereferenceable(8) %7) #18
  ret i1 %16
}